; Function Attrs: mustprogress nounwind uwtable
define void @_ZN7Imf_3_29InputFileD2Ev(ptr noundef nonnull align 8 dereferenceable(16) %this) unnamed_addr #4 align 2 {
entry:
  store ptr getelementptr inbounds ({ [4 x ptr] }, ptr @_ZTVN7Imf_3_29InputFileE, i64 0, i32 0, i64 2), ptr %this, align 8
  %_data = getelementptr inbounds i8, ptr %this, i64 8
  %0 = load ptr, ptr %_data, align 8
  %_deleteStream = getelementptr inbounds i8, ptr %0, i64 256
  %1 = load i8, ptr %_deleteStream, align 8
  %2 = and i8 %1, 1
  %tobool.not = icmp eq i8 %2, 0
  br i1 %tobool.not, label %if.end, label %if.then

if.then:                                          ; preds = %entry
  %_streamData = getelementptr inbounds i8, ptr %0, i64 248
  %3 = load ptr, ptr %_streamData, align 8
  %is = getelementptr inbounds i8, ptr %3, i64 40
  %4 = load ptr, ptr %is, align 8
  %isnull = icmp eq ptr %4, null
  br i1 %isnull, label %if.end, label %delete.notnull

delete.notnull:                                   ; preds = %if.then
  %vtable = load ptr, ptr %4, align 8
  %vfn = getelementptr inbounds i8, ptr %vtable, i64 8
  %5 = load ptr, ptr %vfn, align 8
  tail call void %5(ptr noundef nonnull align 8 dereferenceable(40) %4) #20
  %.pre = load ptr, ptr %_data, align 8
  br label %if.end

if.end:                                           ; preds = %if.then, %delete.notnull, %entry
  %6 = phi ptr [ %0, %if.then ], [ %.pre, %delete.notnull ], [ %0, %entry ]
  %partNumber = getelementptr inbounds i8, ptr %6, i64 220
  %7 = load i32, ptr %partNumber, align 4
  %cmp = icmp eq i32 %7, -1
  br i1 %cmp, label %land.lhs.true, label %delete.notnull19

land.lhs.true:                                    ; preds = %if.end
  %_streamData5 = getelementptr inbounds i8, ptr %6, i64 248
  %8 = load ptr, ptr %_streamData5, align 8
  %tobool6.not = icmp eq ptr %8, null
  br i1 %tobool6.not, label %delete.notnull19, label %if.end13

if.end13:                                         ; preds = %land.lhs.true
  tail call void @_ZdlPv(ptr noundef nonnull %8) #23
  %.pr.pre = load ptr, ptr %_data, align 8
  %tobool15.not = icmp eq ptr %.pr.pre, null
  br i1 %tobool15.not, label %if.end21, label %delete.notnull19

delete.notnull19:                                 ; preds = %land.lhs.true, %if.end, %if.end13
  %9 = phi ptr [ %.pr.pre, %if.end13 ], [ %6, %if.end ], [ %6, %land.lhs.true ]
  tail call void @_ZN7Imf_3_29InputFile4DataD2Ev(ptr noundef nonnull align 8 dereferenceable(257) %9) #20
  tail call void @_ZdlPv(ptr noundef nonnull %9) #23
  br label %if.end21

if.end21:                                         ; preds = %delete.notnull19, %if.end13
  tail call void @_ZN7Imf_3_216GenericInputFileD2Ev(ptr noundef nonnull align 8 dereferenceable(8) %this) #20
  ret void
}